; Function Attrs: mustprogress uwtable
define hidden void @_ZNK11func_interp16get_array_interpEP9func_decl(ptr noalias sret(%class.obj_ref) align 8 %agg.result, ptr nocapture noundef nonnull align 8 dereferenceable(56) %this, ptr noundef %f) local_unnamed_addr #3 align 2 personality ptr @__gxx_personality_v0 {
entry:
  %m_array_interp = getelementptr inbounds i8, ptr %this, i64 48
  %0 = load ptr, ptr %m_array_interp, align 8
  %cmp.not = icmp eq ptr %0, null
  br i1 %cmp.not, label %if.end, label %_ZN7obj_refI4expr11ast_managerEC2EPS0_RS1_.exit

_ZN7obj_refI4expr11ast_managerEC2EPS0_RS1_.exit:  ; preds = %entry
  %1 = load ptr, ptr %this, align 8
  store ptr %0, ptr %agg.result, align 8
  %m_manager.i = getelementptr inbounds i8, ptr %agg.result, i64 8
  store ptr %1, ptr %m_manager.i, align 8
  br label %return.sink.split

if.end:                                           ; preds = %entry
  tail call void @_ZNK11func_interp21get_array_interp_coreEP9func_decl(ptr sret(%class.obj_ref) align 8 %agg.result, ptr noundef nonnull align 8 dereferenceable(56) %this, ptr noundef %f)
  %2 = load ptr, ptr %agg.result, align 8
  %cmp.i.not = icmp eq ptr %2, null
  br i1 %cmp.i.not, label %return, label %_ZN11ast_manager7inc_refEP3ast.exit

_ZN11ast_manager7inc_refEP3ast.exit:              ; preds = %if.end
  store ptr %2, ptr %m_array_interp, align 8
  br label %return.sink.split

return.sink.split:                                ; preds = %_ZN7obj_refI4expr11ast_managerEC2EPS0_RS1_.exit, %_ZN11ast_manager7inc_refEP3ast.exit
  %.sink = phi ptr [ %0, %_ZN7obj_refI4expr11ast_managerEC2EPS0_RS1_.exit ], [ %2, %_ZN11ast_manager7inc_refEP3ast.exit ]
  %m_ref_count.i.i.i.i = getelementptr inbounds i8, ptr %.sink, i64 8
  %3 = load i32, ptr %m_ref_count.i.i.i.i, align 4
  %inc.i.i = add i32 %3, 1
  store i32 %inc.i.i, ptr %m_ref_count.i.i.i.i, align 4
  br label %return

return:                                           ; preds = %return.sink.split, %if.end
  ret void
}